target datalayout = "e-m:e-p270:32:32-p271:32:32-p272:64:64-i64:64-i128:128-f80:128-n8:16:32:64-S128"
target triple = "x86_64-unknown-linux-gnu"

%"class.sat::literal" = type { i32 }
%"class.sat::lookahead" = type { ptr, i32, %class.reslimit, %"struct.sat::lookahead::config", double, double, double, %class.svector.1, %class.svector.1, %class.svector.3, %class.vector.5, %class.svector.3, %class.svector.3, %class.vector.6, %class.svector.3, %class.small_object_allocator, %class.vector.7, %class.ptr_vector.8, %class.svector.3, i32, %class.svector.3, i32, %class.svector.3, i8, %class.svector.3, %class.vector.10, ptr, %class.svector.11, i32, i32, %class.svector.3, i32, i32, %class.vector.13, %class.svector.14, double, %class.svector.1, i32, i64, %class.svector.16, i32, %class.indexed_uint_set, i32, i32, %"struct.sat::lookahead::stats", %class.svector.18, %"struct.sat::lookahead::cube_state", i32, %class.svector.22, %class.tracked_uint_set, %"class.sat::literal", i32, i32, %"class.sat::literal", %class.vector.26, %"class.sat::literal", %class.svector.27 }
%class.reslimit = type { %"struct.std::atomic", i8, i64, i64, %class.svector, %class.ptr_vector }
%"struct.std::atomic" = type { %"struct.std::__atomic_base" }
%"struct.std::__atomic_base" = type { i32 }
%class.svector = type { %class.vector }
%class.vector = type { ptr }
%class.ptr_vector = type { %class.vector.0 }
%class.vector.0 = type { ptr }
%"struct.sat::lookahead::config" = type { double, double, double, i32, i32, i8, i32, double, i32, i32, i32, i32, i32, double, double, double, double, double }
%class.vector.5 = type { ptr }
%class.vector.6 = type { ptr }
%class.small_object_allocator = type { [32 x ptr], [32 x ptr], i64 }
%class.vector.7 = type { ptr }
%class.ptr_vector.8 = type { %class.vector.9 }
%class.vector.9 = type { ptr }
%class.vector.10 = type { ptr }
%class.svector.11 = type { %class.vector.12 }
%class.vector.12 = type { ptr }
%class.svector.3 = type { %class.vector.4 }
%class.vector.4 = type { ptr }
%class.vector.13 = type { ptr }
%class.svector.14 = type { %class.vector.15 }
%class.vector.15 = type { ptr }
%class.svector.1 = type { %class.vector.2 }
%class.vector.2 = type { ptr }
%class.svector.16 = type { %class.vector.17 }
%class.vector.17 = type { ptr }
%class.indexed_uint_set = type { i32, %class.svector.3, %class.svector.3 }
%"struct.sat::lookahead::stats" = type { i32, i32, i32, i32, i32, i32, i32, i32 }
%class.svector.18 = type { %class.vector.19 }
%class.vector.19 = type { ptr }
%"struct.sat::lookahead::cube_state" = type <{ i8, [7 x i8], %class.svector.20, %class.svector.1, double, double, i32, i32, i32, [4 x i8] }>
%class.svector.20 = type { %class.vector.21 }
%class.vector.21 = type { ptr }
%class.svector.22 = type { %class.vector.23 }
%class.vector.23 = type { ptr }
%class.tracked_uint_set = type { %class.svector.24, %class.svector.3 }
%class.svector.24 = type { %class.vector.25 }
%class.vector.25 = type { ptr }
%class.vector.26 = type { ptr }
%class.svector.27 = type { %class.vector.28 }
%class.vector.28 = type { ptr }

; Function Attrs: mustprogress nounwind uwtable
define linkonce_odr hidden noundef i32 @_ZNK6vectorIjLb0EjE4sizeEv(ptr noundef nonnull align 8 dereferenceable(8) %this) #4 comdat align 2 {
entry:
  %retval = alloca i32, align 4
  %this.addr = alloca ptr, align 8
  store ptr %this, ptr %this.addr, align 8
  %this1 = load ptr, ptr %this.addr, align 8
  %m_data = getelementptr inbounds %class.vector.4, ptr %this1, i32 0, i32 0
  %0 = load ptr, ptr %m_data, align 8
  %cmp = icmp eq ptr %0, null
  br i1 %cmp, label %if.then, label %if.end

if.then:                                          ; preds = %entry
  store i32 0, ptr %retval, align 4
  br label %return

if.end:                                           ; preds = %entry
  %m_data2 = getelementptr inbounds %class.vector.4, ptr %this1, i32 0, i32 0
  %1 = load ptr, ptr %m_data2, align 8
  %arrayidx = getelementptr inbounds i32, ptr %1, i64 -1
  %2 = load i32, ptr %arrayidx, align 4
  store i32 %2, ptr %retval, align 4
  br label %return

return:                                           ; preds = %if.end, %if.then
  %3 = load i32, ptr %retval, align 4
  ret i32 %3
}

; Function Attrs: mustprogress nounwind uwtable
define linkonce_odr hidden noundef ptr @_ZN6vectorIjLb0EjE3endEv(ptr noundef nonnull align 8 dereferenceable(8) %this) #4 comdat align 2 {
entry:
  %this.addr = alloca ptr, align 8
  store ptr %this, ptr %this.addr, align 8
  %this1 = load ptr, ptr %this.addr, align 8
  %m_data = getelementptr inbounds %class.vector.4, ptr %this1, i32 0, i32 0
  %0 = load ptr, ptr %m_data, align 8
  %call = call noundef i32 @_ZNK6vectorIjLb0EjE4sizeEv(ptr noundef nonnull align 8 dereferenceable(8) %this1)
  %idx.ext = zext i32 %call to i64
  %add.ptr = getelementptr inbounds i32, ptr %0, i64 %idx.ext
  ret ptr %add.ptr
}

; Function Attrs: mustprogress nounwind uwtable
define linkonce_odr hidden noundef ptr @_ZN6vectorIjLb0EjE5beginEv(ptr noundef nonnull align 8 dereferenceable(8) %this) #4 comdat align 2 {
entry:
  %this.addr = alloca ptr, align 8
  store ptr %this, ptr %this.addr, align 8
  %this1 = load ptr, ptr %this.addr, align 8
  %m_data = getelementptr inbounds %class.vector.4, ptr %this1, i32 0, i32 0
  %0 = load ptr, ptr %m_data, align 8
  ret ptr %0
}

; Function Attrs: mustprogress nounwind uwtable
define linkonce_odr hidden noundef i32 @_ZNK6vectorIN3sat7literalELb0EjE4sizeEv(ptr noundef nonnull align 8 dereferenceable(8) %this) #4 comdat align 2 {
entry:
  %retval = alloca i32, align 4
  %this.addr = alloca ptr, align 8
  store ptr %this, ptr %this.addr, align 8
  %this1 = load ptr, ptr %this.addr, align 8
  %m_data = getelementptr inbounds %class.vector.2, ptr %this1, i32 0, i32 0
  %0 = load ptr, ptr %m_data, align 8
  %cmp = icmp eq ptr %0, null
  br i1 %cmp, label %if.then, label %if.end

if.then:                                          ; preds = %entry
  store i32 0, ptr %retval, align 4
  br label %return

if.end:                                           ; preds = %entry
  %m_data2 = getelementptr inbounds %class.vector.2, ptr %this1, i32 0, i32 0
  %1 = load ptr, ptr %m_data2, align 8
  %arrayidx = getelementptr inbounds i32, ptr %1, i64 -1
  %2 = load i32, ptr %arrayidx, align 4
  store i32 %2, ptr %retval, align 4
  br label %return

return:                                           ; preds = %if.end, %if.then
  %3 = load i32, ptr %retval, align 4
  ret i32 %3
}

; Function Attrs: mustprogress nounwind uwtable
define linkonce_odr hidden noundef nonnull align 4 dereferenceable(4) ptr @_ZN6vectorIjLb0EjEixEj(ptr noundef nonnull align 8 dereferenceable(8) %this, i32 noundef %idx) #4 comdat align 2 {
entry:
  %this.addr = alloca ptr, align 8
  %idx.addr = alloca i32, align 4
  store ptr %this, ptr %this.addr, align 8
  store i32 %idx, ptr %idx.addr, align 4
  %this1 = load ptr, ptr %this.addr, align 8
  %m_data = getelementptr inbounds %class.vector.4, ptr %this1, i32 0, i32 0
  %0 = load ptr, ptr %m_data, align 8
  %1 = load i32, ptr %idx.addr, align 4
  %idxprom = zext i32 %1 to i64
  %arrayidx = getelementptr inbounds i32, ptr %0, i64 %idxprom
  ret ptr %arrayidx
}

; Function Attrs: mustprogress nounwind uwtable
define linkonce_odr hidden void @_ZN6vectorIjLb0EjE4fillERKj(ptr noundef nonnull align 8 dereferenceable(8) %this, ptr noundef nonnull align 4 dereferenceable(4) %elem) #4 comdat align 2 {
entry:
  %this.addr = alloca ptr, align 8
  %elem.addr = alloca ptr, align 8
  %i = alloca ptr, align 8
  %e = alloca ptr, align 8
  store ptr %this, ptr %this.addr, align 8
  store ptr %elem, ptr %elem.addr, align 8
  %this1 = load ptr, ptr %this.addr, align 8
  %call = call noundef ptr @_ZN6vectorIjLb0EjE5beginEv(ptr noundef nonnull align 8 dereferenceable(8) %this1)
  store ptr %call, ptr %i, align 8
  %call2 = call noundef ptr @_ZN6vectorIjLb0EjE3endEv(ptr noundef nonnull align 8 dereferenceable(8) %this1)
  store ptr %call2, ptr %e, align 8
  br label %for.cond

for.cond:                                         ; preds = %for.inc, %entry
  %0 = load ptr, ptr %i, align 8
  %1 = load ptr, ptr %e, align 8
  %cmp = icmp ne ptr %0, %1
  br i1 %cmp, label %for.body, label %for.end

for.body:                                         ; preds = %for.cond
  %2 = load ptr, ptr %elem.addr, align 8
  %3 = load i32, ptr %2, align 4
  %4 = load ptr, ptr %i, align 8
  store i32 %3, ptr %4, align 4
  br label %for.inc

for.inc:                                          ; preds = %for.body
  %5 = load ptr, ptr %i, align 8
  %incdec.ptr = getelementptr inbounds i32, ptr %5, i32 1
  store ptr %incdec.ptr, ptr %i, align 8
  br label %for.cond, !llvm.loop !8

for.end:                                          ; preds = %for.cond
  ret void
}

; Function Attrs: mustprogress nounwind uwtable
define linkonce_odr hidden noundef ptr @_ZNK6vectorIN3sat7literalELb0EjE3endEv(ptr noundef nonnull align 8 dereferenceable(8) %this) #4 comdat align 2 {
entry:
  %this.addr = alloca ptr, align 8
  store ptr %this, ptr %this.addr, align 8
  %this1 = load ptr, ptr %this.addr, align 8
  %m_data = getelementptr inbounds %class.vector.2, ptr %this1, i32 0, i32 0
  %0 = load ptr, ptr %m_data, align 8
  %call = call noundef i32 @_ZNK6vectorIN3sat7literalELb0EjE4sizeEv(ptr noundef nonnull align 8 dereferenceable(8) %this1)
  %idx.ext = zext i32 %call to i64
  %add.ptr = getelementptr inbounds %"class.sat::literal", ptr %0, i64 %idx.ext
  ret ptr %add.ptr
}

; Function Attrs: mustprogress nounwind uwtable
define linkonce_odr hidden noundef ptr @_ZNK6vectorIN3sat7literalELb0EjE5beginEv(ptr noundef nonnull align 8 dereferenceable(8) %this) #4 comdat align 2 {
entry:
  %this.addr = alloca ptr, align 8
  store ptr %this, ptr %this.addr, align 8
  %this1 = load ptr, ptr %this.addr, align 8
  %m_data = getelementptr inbounds %class.vector.2, ptr %this1, i32 0, i32 0
  %0 = load ptr, ptr %m_data, align 8
  ret ptr %0
}

; Function Attrs: mustprogress nounwind uwtable
define linkonce_odr hidden noundef nonnull align 8 dereferenceable(8) ptr @_ZN6vectorI7svectorIN3sat7literalEjELb1EjEixEj(ptr noundef nonnull align 8 dereferenceable(8) %this, i32 noundef %idx) #4 comdat align 2 {
entry:
  %this.addr = alloca ptr, align 8
  %idx.addr = alloca i32, align 4
  store ptr %this, ptr %this.addr, align 8
  store i32 %idx, ptr %idx.addr, align 4
  %this1 = load ptr, ptr %this.addr, align 8
  %m_data = getelementptr inbounds %class.vector.5, ptr %this1, i32 0, i32 0
  %0 = load ptr, ptr %m_data, align 8
  %1 = load i32, ptr %idx.addr, align 4
  %idxprom = zext i32 %1 to i64
  %arrayidx = getelementptr inbounds %class.svector.1, ptr %0, i64 %idxprom
  ret ptr %arrayidx
}

; Function Attrs: mustprogress nounwind uwtable
define linkonce_odr hidden noundef i32 @_ZNK3sat7literal5indexEv(ptr noundef nonnull align 4 dereferenceable(4) %this) #4 comdat align 2 {
entry:
  %this.addr = alloca ptr, align 8
  store ptr %this, ptr %this.addr, align 8
  %this1 = load ptr, ptr %this.addr, align 8
  %m_val = getelementptr inbounds %"class.sat::literal", ptr %this1, i32 0, i32 0
  %0 = load i32, ptr %m_val, align 4
  ret i32 %0
}

; Function Attrs: mustprogress uwtable
define linkonce_odr hidden void @_ZN3sat9lookahead10set_bstampENS_7literalE(ptr noundef nonnull align 8 dereferenceable(1160) %this, i32 %l.coerce) #5 comdat align 2 {
entry:
  %l = alloca %"class.sat::literal", align 4
  %this.addr = alloca ptr, align 8
  %coerce.dive = getelementptr inbounds %"class.sat::literal", ptr %l, i32 0, i32 0
  store i32 %l.coerce, ptr %coerce.dive, align 4
  store ptr %this, ptr %this.addr, align 8
  %this1 = load ptr, ptr %this.addr, align 8
  %m_bstamp_id = getelementptr inbounds %"class.sat::lookahead", ptr %this1, i32 0, i32 28
  %0 = load i32, ptr %m_bstamp_id, align 8
  %m_bstamp = getelementptr inbounds %"class.sat::lookahead", ptr %this1, i32 0, i32 24
  %call = call noundef i32 @_ZNK3sat7literal5indexEv(ptr noundef nonnull align 4 dereferenceable(4) %l)
  %call2 = call noundef nonnull align 4 dereferenceable(4) ptr @_ZN6vectorIjLb0EjEixEj(ptr noundef nonnull align 8 dereferenceable(8) %m_bstamp, i32 noundef %call)
  store i32 %0, ptr %call2, align 4
  ret void
}

; Function Attrs: mustprogress uwtable
define hidden void @_ZN3sat9lookahead10inc_bstampEv(ptr noundef nonnull align 8 dereferenceable(1160) %this) #5 align 2 {
entry:
  %this.addr = alloca ptr, align 8
  %ref.tmp = alloca i32, align 4
  store ptr %this, ptr %this.addr, align 8
  %this1 = load ptr, ptr %this.addr, align 8
  %m_bstamp_id = getelementptr inbounds %"class.sat::lookahead", ptr %this1, i32 0, i32 28
  %0 = load i32, ptr %m_bstamp_id, align 8
  %inc = add i32 %0, 1
  store i32 %inc, ptr %m_bstamp_id, align 8
  %m_bstamp_id2 = getelementptr inbounds %"class.sat::lookahead", ptr %this1, i32 0, i32 28
  %1 = load i32, ptr %m_bstamp_id2, align 8
  %cmp = icmp eq i32 %1, 0
  br i1 %cmp, label %if.then, label %if.end

if.then:                                          ; preds = %entry
  %m_bstamp_id3 = getelementptr inbounds %"class.sat::lookahead", ptr %this1, i32 0, i32 28
  %2 = load i32, ptr %m_bstamp_id3, align 8
  %inc4 = add i32 %2, 1
  store i32 %inc4, ptr %m_bstamp_id3, align 8
  %m_bstamp = getelementptr inbounds %"class.sat::lookahead", ptr %this1, i32 0, i32 24
  store i32 0, ptr %ref.tmp, align 4
  call void @_ZN6vectorIjLb0EjE4fillERKj(ptr noundef nonnull align 8 dereferenceable(8) %m_bstamp, ptr noundef nonnull align 4 dereferenceable(4) %ref.tmp)
  br label %if.end

if.end:                                           ; preds = %if.then, %entry
  ret void
}

; Function Attrs: mustprogress uwtable
define hidden void @_ZN3sat9lookahead11set_bstampsENS_7literalE(ptr noundef nonnull align 8 dereferenceable(1160) %this, i32 %l.coerce) #5 align 2 {
entry:
  %l = alloca %"class.sat::literal", align 4
  %this.addr = alloca ptr, align 8
  %agg.tmp = alloca %"class.sat::literal", align 4
  %conseq = alloca ptr, align 8
  %__range1 = alloca ptr, align 8
  %__begin1 = alloca ptr, align 8
  %__end1 = alloca ptr, align 8
  %l6 = alloca %"class.sat::literal", align 4
  %agg.tmp7 = alloca %"class.sat::literal", align 4
  %coerce.dive = getelementptr inbounds %"class.sat::literal", ptr %l, i32 0, i32 0
  store i32 %l.coerce, ptr %coerce.dive, align 4
  store ptr %this, ptr %this.addr, align 8
  %this1 = load ptr, ptr %this.addr, align 8
  call void @_ZN3sat9lookahead10inc_bstampEv(ptr noundef nonnull align 8 dereferenceable(1160) %this1)
  call void @llvm.memcpy.p0.p0.i64(ptr align 4 %agg.tmp, ptr align 4 %l, i64 4, i1 false)
  %coerce.dive2 = getelementptr inbounds %"class.sat::literal", ptr %agg.tmp, i32 0, i32 0
  %0 = load i32, ptr %coerce.dive2, align 4
  call void @_ZN3sat9lookahead10set_bstampENS_7literalE(ptr noundef nonnull align 8 dereferenceable(1160) %this1, i32 %0)
  %m_binary = getelementptr inbounds %"class.sat::lookahead", ptr %this1, i32 0, i32 10
  %call = call noundef i32 @_ZNK3sat7literal5indexEv(ptr noundef nonnull align 4 dereferenceable(4) %l)
  %call3 = call noundef nonnull align 8 dereferenceable(8) ptr @_ZN6vectorI7svectorIN3sat7literalEjELb1EjEixEj(ptr noundef nonnull align 8 dereferenceable(8) %m_binary, i32 noundef %call)
  store ptr %call3, ptr %conseq, align 8
  %1 = load ptr, ptr %conseq, align 8
  store ptr %1, ptr %__range1, align 8
  %2 = load ptr, ptr %__range1, align 8
  %call4 = call noundef ptr @_ZNK6vectorIN3sat7literalELb0EjE5beginEv(ptr noundef nonnull align 8 dereferenceable(8) %2)
  store ptr %call4, ptr %__begin1, align 8
  %3 = load ptr, ptr %__range1, align 8
  %call5 = call noundef ptr @_ZNK6vectorIN3sat7literalELb0EjE3endEv(ptr noundef nonnull align 8 dereferenceable(8) %3)
  store ptr %call5, ptr %__end1, align 8
  br label %for.cond

for.cond:                                         ; preds = %for.inc, %entry
  %4 = load ptr, ptr %__begin1, align 8
  %5 = load ptr, ptr %__end1, align 8
  %cmp = icmp ne ptr %4, %5
  br i1 %cmp, label %for.body, label %for.end

for.body:                                         ; preds = %for.cond
  %6 = load ptr, ptr %__begin1, align 8
  call void @llvm.memcpy.p0.p0.i64(ptr align 4 %l6, ptr align 4 %6, i64 4, i1 false)
  call void @llvm.memcpy.p0.p0.i64(ptr align 4 %agg.tmp7, ptr align 4 %l6, i64 4, i1 false)
  %coerce.dive8 = getelementptr inbounds %"class.sat::literal", ptr %agg.tmp7, i32 0, i32 0
  %7 = load i32, ptr %coerce.dive8, align 4
  call void @_ZN3sat9lookahead10set_bstampENS_7literalE(ptr noundef nonnull align 8 dereferenceable(1160) %this1, i32 %7)
  br label %for.inc

for.inc:                                          ; preds = %for.body
  %8 = load ptr, ptr %__begin1, align 8
  %incdec.ptr = getelementptr inbounds %"class.sat::literal", ptr %8, i32 1
  store ptr %incdec.ptr, ptr %__begin1, align 8
  br label %for.cond

for.end:                                          ; preds = %for.cond
  ret void
}