; Function Attrs: mustprogress nofree norecurse nosync nounwind memory(readwrite, inaccessiblemem: none) uwtable
define hidden void @_ZN3sat9lookahead11set_bstampsENS_7literalE(ptr nocapture noundef nonnull align 8 dereferenceable(1160) %this, i32 %l.coerce) local_unnamed_addr #10 align 2 {
entry:
  %m_bstamp_id.i = getelementptr inbounds i8, ptr %this, i64 872
  %0 = load i32, ptr %m_bstamp_id.i, align 8
  %inc.i = add i32 %0, 1
  store i32 %inc.i, ptr %m_bstamp_id.i, align 8
  %cmp.i = icmp eq i32 %inc.i, 0
  br i1 %cmp.i, label %if.then.i, label %_ZN3sat9lookahead10inc_bstampEv.exit

if.then.i:                                        ; preds = %entry
  store i32 1, ptr %m_bstamp_id.i, align 8
  %m_bstamp.i = getelementptr inbounds i8, ptr %this, i64 840
  %1 = load ptr, ptr %m_bstamp.i, align 8
  %cmp.i.i.i.i = icmp eq ptr %1, null
  br i1 %cmp.i.i.i.i, label %_ZN3sat9lookahead10inc_bstampEv.exit, label %_ZN6vectorIjLb0EjE3endEv.exit.i.i

_ZN6vectorIjLb0EjE3endEv.exit.i.i:                ; preds = %if.then.i
  %arrayidx.i.i.i.i = getelementptr inbounds i8, ptr %1, i64 -4
  %2 = load i32, ptr %arrayidx.i.i.i.i, align 4
  %cmp.not3.i.i = icmp eq i32 %2, 0
  br i1 %cmp.not3.i.i, label %_ZN3sat9lookahead10inc_bstampEv.exit, label %for.body.i.preheader.i

for.body.i.preheader.i:                           ; preds = %_ZN6vectorIjLb0EjE3endEv.exit.i.i
  %3 = zext i32 %2 to i64
  %4 = shl nuw nsw i64 %3, 2
  tail call void @llvm.memset.p0.i64(ptr nonnull align 4 %1, i8 0, i64 %4, i1 false)
  %.pre = load i32, ptr %m_bstamp_id.i, align 8
  br label %_ZN3sat9lookahead10inc_bstampEv.exit

_ZN3sat9lookahead10inc_bstampEv.exit:             ; preds = %entry, %if.then.i, %_ZN6vectorIjLb0EjE3endEv.exit.i.i, %for.body.i.preheader.i
  %5 = phi i32 [ %inc.i, %entry ], [ 1, %if.then.i ], [ 1, %_ZN6vectorIjLb0EjE3endEv.exit.i.i ], [ %.pre, %for.body.i.preheader.i ]
  %m_bstamp.i5 = getelementptr inbounds i8, ptr %this, i64 840
  %6 = load ptr, ptr %m_bstamp.i5, align 8
  %idxprom.i.i = zext i32 %l.coerce to i64
  %arrayidx.i.i = getelementptr inbounds i32, ptr %6, i64 %idxprom.i.i
  store i32 %5, ptr %arrayidx.i.i, align 4
  %m_binary = getelementptr inbounds i8, ptr %this, i64 216
  %7 = load ptr, ptr %m_binary, align 8
  %arrayidx.i = getelementptr inbounds %class.svector.1, ptr %7, i64 %idxprom.i.i
  %8 = load ptr, ptr %arrayidx.i, align 8
  %cmp.i.i = icmp eq ptr %8, null
  br i1 %cmp.i.i, label %for.end, label %_ZNK6vectorIN3sat7literalELb0EjE3endEv.exit

_ZNK6vectorIN3sat7literalELb0EjE3endEv.exit:      ; preds = %_ZN3sat9lookahead10inc_bstampEv.exit
  %arrayidx.i.i6 = getelementptr inbounds i8, ptr %8, i64 -4
  %9 = load i32, ptr %arrayidx.i.i6, align 4
  %10 = zext i32 %9 to i64
  %add.ptr.i = getelementptr inbounds %"class.sat::literal", ptr %8, i64 %10
  %cmp.not12 = icmp eq i32 %9, 0
  br i1 %cmp.not12, label %for.end, label %for.body.preheader

for.body.preheader:                               ; preds = %_ZNK6vectorIN3sat7literalELb0EjE3endEv.exit
  %.pre14 = load i32, ptr %m_bstamp_id.i, align 8
  br label %for.body

for.body:                                         ; preds = %for.body.preheader, %for.body
  %__begin1.013 = phi ptr [ %incdec.ptr, %for.body ], [ %8, %for.body.preheader ]
  %l6.sroa.0.0.copyload = load i32, ptr %__begin1.013, align 4
  %11 = load ptr, ptr %m_bstamp.i5, align 8
  %idxprom.i.i9 = zext i32 %l6.sroa.0.0.copyload to i64
  %arrayidx.i.i10 = getelementptr inbounds i32, ptr %11, i64 %idxprom.i.i9
  store i32 %.pre14, ptr %arrayidx.i.i10, align 4
  %incdec.ptr = getelementptr inbounds i8, ptr %__begin1.013, i64 4
  %cmp.not = icmp eq ptr %incdec.ptr, %add.ptr.i
  br i1 %cmp.not, label %for.end, label %for.body

for.end:                                          ; preds = %for.body, %_ZN3sat9lookahead10inc_bstampEv.exit, %_ZNK6vectorIN3sat7literalELb0EjE3endEv.exit
  ret void
}